; Function Attrs: mustprogress nounwind uwtable
define hidden void @_ZN13ZNMethodTable17nmethods_do_beginEb(i1 noundef zeroext %0) local_unnamed_addr #1 align 2 {
  %2 = load ptr, ptr @CodeCache_lock, align 8
  %.not.i.i = icmp eq ptr %2, null
  br i1 %.not.i.i, label %_ZN11MutexLockerC2EP5MutexNS0_18SafepointCheckFlagE.exit, label %3

3:                                                ; preds = %1
  tail call void @_ZN5Mutex28lock_without_safepoint_checkEv(ptr noundef nonnull align 8 dereferenceable(104) %2) #12
  br label %_ZN11MutexLockerC2EP5MutexNS0_18SafepointCheckFlagE.exit

_ZN11MutexLockerC2EP5MutexNS0_18SafepointCheckFlagE.exit: ; preds = %1, %3
  %4 = load ptr, ptr @_ZN13ZNMethodTable12_safe_deleteE, align 8
  %.not.i.i.i = icmp eq ptr %4, null
  br i1 %.not.i.i.i, label %_ZN7ZLockerI5ZLockEC2EPS0_.exit.thread.i.i, label %7

_ZN7ZLockerI5ZLockEC2EPS0_.exit.thread.i.i:       ; preds = %_ZN11MutexLockerC2EP5MutexNS0_18SafepointCheckFlagE.exit
  %5 = load i64, ptr getelementptr inbounds (i8, ptr @_ZN13ZNMethodTable12_safe_deleteE, i64 8), align 8
  %6 = add i64 %5, 1
  store i64 %6, ptr getelementptr inbounds (i8, ptr @_ZN13ZNMethodTable12_safe_deleteE, i64 8), align 8
  br label %_ZN11ZSafeDeleteIA_18ZNMethodTableEntryE22enable_deferred_deleteEv.exit

7:                                                ; preds = %_ZN11MutexLockerC2EP5MutexNS0_18SafepointCheckFlagE.exit
  %8 = tail call i32 @pthread_mutex_lock(ptr noundef nonnull %4) #12
  %9 = load i64, ptr getelementptr inbounds (i8, ptr @_ZN13ZNMethodTable12_safe_deleteE, i64 8), align 8
  %10 = add i64 %9, 1
  store i64 %10, ptr getelementptr inbounds (i8, ptr @_ZN13ZNMethodTable12_safe_deleteE, i64 8), align 8
  %11 = tail call i32 @pthread_mutex_unlock(ptr noundef nonnull %4) #12
  br label %_ZN11ZSafeDeleteIA_18ZNMethodTableEntryE22enable_deferred_deleteEv.exit

_ZN11ZSafeDeleteIA_18ZNMethodTableEntryE22enable_deferred_deleteEv.exit: ; preds = %_ZN7ZLockerI5ZLockEC2EPS0_.exit.thread.i.i, %7
  %12 = select i1 %0, ptr @_ZN13ZNMethodTable20_iteration_secondaryE, ptr @_ZN13ZNMethodTable10_iterationE
  %13 = load ptr, ptr @_ZN13ZNMethodTable6_tableE, align 8
  %14 = load i64, ptr @_ZN13ZNMethodTable5_sizeE, align 8
  tail call void @_ZN22ZNMethodTableIteration17nmethods_do_beginEP18ZNMethodTableEntrym(ptr noundef nonnull align 64 dereferenceable(72) %12, ptr noundef %13, i64 noundef %14) #12
  br i1 %.not.i.i, label %_ZN11MutexLockerD2Ev.exit, label %15

15:                                               ; preds = %_ZN11ZSafeDeleteIA_18ZNMethodTableEntryE22enable_deferred_deleteEv.exit
  tail call void @_ZN5Mutex6unlockEv(ptr noundef nonnull align 8 dereferenceable(104) %2) #12
  br label %_ZN11MutexLockerD2Ev.exit

_ZN11MutexLockerD2Ev.exit:                        ; preds = %_ZN11ZSafeDeleteIA_18ZNMethodTableEntryE22enable_deferred_deleteEv.exit, %15
  ret void
}